target datalayout = "e-m:e-p270:32:32-p271:32:32-p272:64:64-i64:64-i128:128-f80:128-n8:16:32:64-S128"
target triple = "x86_64-pc-linux-gnu"

%"class.arrow_vendored::double_conversion::Bignum" = type { i16, i16, [128 x i32] }

; Function Attrs: mustprogress nounwind uwtable
define noundef nonnull align 4 dereferenceable(4) ptr @_ZN14arrow_vendored17double_conversion6Bignum8RawBigitEi(ptr noundef nonnull align 4 dereferenceable(516) %0, i32 noundef %1) #0 align 2 {
  %3 = alloca ptr, align 8
  %4 = alloca i32, align 4
  store ptr %0, ptr %3, align 8, !tbaa !3
  store i32 %1, ptr %4, align 4, !tbaa !8
  %5 = load ptr, ptr %3, align 8
  %6 = getelementptr inbounds nuw %"class.arrow_vendored::double_conversion::Bignum", ptr %5, i32 0, i32 2
  %7 = load i32, ptr %4, align 4, !tbaa !8
  %8 = sext i32 %7 to i64
  %9 = getelementptr inbounds [128 x i32], ptr %6, i64 0, i64 %8
  ret ptr %9
}

; Function Attrs: mustprogress nounwind uwtable
define linkonce_odr void @_ZN14arrow_vendored17double_conversion6Bignum4ZeroEv(ptr noundef nonnull align 4 dereferenceable(516) %0) #0 comdat align 2 {
  %2 = alloca ptr, align 8
  store ptr %0, ptr %2, align 8, !tbaa !3
  %3 = load ptr, ptr %2, align 8
  %4 = getelementptr inbounds nuw %"class.arrow_vendored::double_conversion::Bignum", ptr %3, i32 0, i32 0
  store i16 0, ptr %4, align 4, !tbaa !12
  %5 = getelementptr inbounds nuw %"class.arrow_vendored::double_conversion::Bignum", ptr %3, i32 0, i32 1
  store i16 0, ptr %5, align 2, !tbaa !14
  ret void
}

; Function Attrs: mustprogress uwtable
define void @_ZN14arrow_vendored17double_conversion6Bignum12AssignUInt64Em(ptr noundef nonnull align 4 dereferenceable(516) %0, i64 noundef %1) #1 align 2 {
  %3 = alloca ptr, align 8
  %4 = alloca i64, align 8
  %5 = alloca i32, align 4
  store ptr %0, ptr %3, align 8, !tbaa !3
  store i64 %1, ptr %4, align 8, !tbaa !15
  %6 = load ptr, ptr %3, align 8
  call void @_ZN14arrow_vendored17double_conversion6Bignum4ZeroEv(ptr noundef nonnull align 4 dereferenceable(516) %6)
  call void @llvm.lifetime.start.p0(i64 4, ptr %5) #6
  store i32 0, ptr %5, align 4, !tbaa !8
  br label %7

7:                                                ; preds = %22, %2
  %8 = load i64, ptr %4, align 8, !tbaa !15
  %9 = icmp ugt i64 %8, 0
  br i1 %9, label %11, label %10

10:                                               ; preds = %7
  call void @llvm.lifetime.end.p0(i64 4, ptr %5) #6
  br label %25

11:                                               ; preds = %7
  %12 = load i64, ptr %4, align 8, !tbaa !15
  %13 = and i64 %12, 268435455
  %14 = trunc i64 %13 to i32
  %15 = load i32, ptr %5, align 4, !tbaa !8
  %16 = call noundef nonnull align 4 dereferenceable(4) ptr @_ZN14arrow_vendored17double_conversion6Bignum8RawBigitEi(ptr noundef nonnull align 4 dereferenceable(516) %6, i32 noundef %15)
  store i32 %14, ptr %16, align 4, !tbaa !8
  %17 = load i64, ptr %4, align 8, !tbaa !15
  %18 = lshr i64 %17, 28
  store i64 %18, ptr %4, align 8, !tbaa !15
  %19 = getelementptr inbounds nuw %"class.arrow_vendored::double_conversion::Bignum", ptr %6, i32 0, i32 0
  %20 = load i16, ptr %19, align 4, !tbaa !12
  %21 = add i16 %20, 1
  store i16 %21, ptr %19, align 4, !tbaa !12
  br label %22

22:                                               ; preds = %11
  %23 = load i32, ptr %5, align 4, !tbaa !8
  %24 = add nsw i32 %23, 1
  store i32 %24, ptr %5, align 4, !tbaa !8
  br label %7, !llvm.loop !17

25:                                               ; preds = %10
  ret void
}